target datalayout = "e-m:e-p270:32:32-p271:32:32-p272:64:64-i64:64-i128:128-f80:128-n8:16:32:64-S128"
target triple = "x86_64-pc-linux-gnu"

@.str.751 = private unnamed_addr constant [26 x i8] c"Microsoft Spool Subsystem\00", align 1
@.str.752 = private unnamed_addr constant [8 x i8] c"SPOOLSS\00", align 1
@.str.753 = private unnamed_addr constant [8 x i8] c"spoolss\00", align 1
@proto_dcerpc_spoolss = internal global i32 0, align 4

; Function Attrs: nounwind uwtable
define hidden void @proto_register_dcerpc_spoolss() #0 {
  %1 = alloca ptr, align 8
  %2 = call i32 @proto_register_protocol(ptr noundef @.str.751, ptr noundef @.str.752, ptr noundef @.str.753)
  store i32 %2, ptr @proto_dcerpc_spoolss, align 4
  %3 = load i32, ptr @proto_dcerpc_spoolss, align 4
  call void @proto_register_field_array(i32 noundef %3, ptr noundef @proto_register_dcerpc_spoolss.hf, i32 noundef 363)
  call void @proto_register_subtree_array(ptr noundef @proto_register_dcerpc_spoolss.ett, i32 noundef 48)
  %4 = load i32, ptr @proto_dcerpc_spoolss, align 4
  %5 = call ptr @expert_register_protocol(i32 noundef %4)
  store ptr %5, ptr %1, align 8
  %6 = load ptr, ptr %1, align 8
  call void @expert_register_field_array(ptr noundef %6, ptr noundef @proto_register_dcerpc_spoolss.ei, i32 noundef 11)
  ret void
}