; Function Attrs: nounwind uwtable
define hidden void @proto_register_dcerpc_spoolss() local_unnamed_addr #0 {
  %1 = tail call i32 @proto_register_protocol(ptr noundef nonnull @.str.751, ptr noundef nonnull @.str.752, ptr noundef nonnull @.str.753) #5
  store i32 %1, ptr @proto_dcerpc_spoolss, align 4
  tail call void @proto_register_field_array(i32 noundef %1, ptr noundef nonnull @proto_register_dcerpc_spoolss.hf, i32 noundef 363) #5
  tail call void @proto_register_subtree_array(ptr noundef nonnull @proto_register_dcerpc_spoolss.ett, i32 noundef 48) #5
  %2 = load i32, ptr @proto_dcerpc_spoolss, align 4
  %3 = tail call ptr @expert_register_protocol(i32 noundef %2) #5
  tail call void @expert_register_field_array(ptr noundef %3, ptr noundef nonnull @proto_register_dcerpc_spoolss.ei, i32 noundef 11) #5
  ret void
}